; ModuleID = '51/748.c'
source_filename = "51/748.c"
target datalayout = "e-m:e-p270:32:32-p271:32:32-p272:64:64-i64:64-f80:128-n8:16:32:64-S128"
target triple = "x86_64-pc-linux-gnu"

@.str = private unnamed_addr constant [6 x i8] c"%d\0A%s\00", align 1
@.str.1 = private unnamed_addr constant [3 x i8] c"NO\00", align 1
@.str.2 = private unnamed_addr constant [4 x i8] c"%d\0A\00", align 1
@.str.3 = private unnamed_addr constant [4 x i8] c"%s\0A\00", align 1

; Function Attrs: noinline nounwind uwtable
define dso_local i32 @main() #0 {
  %1 = alloca i32, align 4
  %2 = alloca [500 x i32], align 16
  %3 = alloca i32, align 4
  %4 = alloca i32, align 4
  %5 = alloca [500 x i8], align 16
  %6 = alloca [500 x i8], align 16
  %7 = alloca [500 x i8], align 16
  %8 = alloca i32, align 4
  %9 = alloca i32, align 4
  %10 = alloca i32, align 4
  %11 = alloca i32, align 4
  store i32 0, i32* %1, align 4
  store i32 0, i32* %3, align 4
  %12 = getelementptr inbounds [500 x i8], [500 x i8]* %5, i64 0, i64 0
  %13 = call i32 (i8*, ...) @__isoc99_scanf(i8* getelementptr inbounds ([6 x i8], [6 x i8]* @.str, i64 0, i64 0), i32* %8, i8* %12)
  store i32 0, i32* %9, align 4
  br label %14

14:                                               ; preds = %23, %0
  %15 = load i32, i32* %9, align 4
  %16 = load i32, i32* %8, align 4
  %17 = sub nsw i32 500, %16
  %18 = icmp slt i32 %15, %17
  br i1 %18, label %19, label %26

19:                                               ; preds = %14
  %20 = load i32, i32* %9, align 4
  %21 = sext i32 %20 to i64
  %22 = getelementptr inbounds [500 x i32], [500 x i32]* %2, i64 0, i64 %21
  store i32 0, i32* %22, align 4
  br label %23

23:                                               ; preds = %19
  %24 = load i32, i32* %9, align 4
  %25 = add nsw i32 %24, 1
  store i32 %25, i32* %9, align 4
  br label %14

26:                                               ; preds = %14
  %27 = getelementptr inbounds [500 x i8], [500 x i8]* %5, i64 0, i64 0
  %28 = call i64 @strlen(i8* %27) #3
  %29 = trunc i64 %28 to i32
  store i32 %29, i32* %4, align 4
  store i32 0, i32* %9, align 4
  br label %30

30:                                               ; preds = %106, %26
  %31 = load i32, i32* %9, align 4
  %32 = load i32, i32* %4, align 4
  %33 = load i32, i32* %8, align 4
  %34 = sub nsw i32 %32, %33
  %35 = icmp sle i32 %31, %34
  br i1 %35, label %36, label %109

36:                                               ; preds = %30
  store i32 0, i32* %10, align 4
  br label %37

37:                                               ; preds = %51, %36
  %38 = load i32, i32* %10, align 4
  %39 = load i32, i32* %8, align 4
  %40 = icmp slt i32 %38, %39
  br i1 %40, label %41, label %54

41:                                               ; preds = %37
  %42 = load i32, i32* %9, align 4
  %43 = load i32, i32* %10, align 4
  %44 = add nsw i32 %42, %43
  %45 = sext i32 %44 to i64
  %46 = getelementptr inbounds [500 x i8], [500 x i8]* %5, i64 0, i64 %45
  %47 = load i8, i8* %46, align 1
  %48 = load i32, i32* %10, align 4
  %49 = sext i32 %48 to i64
  %50 = getelementptr inbounds [500 x i8], [500 x i8]* %6, i64 0, i64 %49
  store i8 %47, i8* %50, align 1
  br label %51

51:                                               ; preds = %41
  %52 = load i32, i32* %10, align 4
  %53 = add nsw i32 %52, 1
  store i32 %53, i32* %10, align 4
  br label %37

54:                                               ; preds = %37
  %55 = load i32, i32* %8, align 4
  %56 = load i32, i32* %9, align 4
  %57 = add nsw i32 %55, %56
  %58 = sext i32 %57 to i64
  %59 = getelementptr inbounds [500 x i8], [500 x i8]* %6, i64 0, i64 %58
  store i8 0, i8* %59, align 1
  %60 = load i32, i32* %9, align 4
  store i32 %60, i32* %11, align 4
  br label %61

61:                                               ; preds = %102, %54
  %62 = load i32, i32* %11, align 4
  %63 = load i32, i32* %4, align 4
  %64 = load i32, i32* %8, align 4
  %65 = sub nsw i32 %63, %64
  %66 = icmp sle i32 %62, %65
  br i1 %66, label %67, label %105

67:                                               ; preds = %61
  store i32 0, i32* %10, align 4
  br label %68

68:                                               ; preds = %82, %67
  %69 = load i32, i32* %10, align 4
  %70 = load i32, i32* %8, align 4
  %71 = icmp slt i32 %69, %70
  br i1 %71, label %72, label %85

72:                                               ; preds = %68
  %73 = load i32, i32* %10, align 4
  %74 = load i32, i32* %11, align 4
  %75 = add nsw i32 %73, %74
  %76 = sext i32 %75 to i64
  %77 = getelementptr inbounds [500 x i8], [500 x i8]* %5, i64 0, i64 %76
  %78 = load i8, i8* %77, align 1
  %79 = load i32, i32* %10, align 4
  %80 = sext i32 %79 to i64
  %81 = getelementptr inbounds [500 x i8], [500 x i8]* %7, i64 0, i64 %80
  store i8 %78, i8* %81, align 1
  br label %82

82:                                               ; preds = %72
  %83 = load i32, i32* %10, align 4
  %84 = add nsw i32 %83, 1
  store i32 %84, i32* %10, align 4
  br label %68

85:                                               ; preds = %68
  %86 = load i32, i32* %8, align 4
  %87 = load i32, i32* %11, align 4
  %88 = add nsw i32 %86, %87
  %89 = sext i32 %88 to i64
  %90 = getelementptr inbounds [500 x i8], [500 x i8]* %7, i64 0, i64 %89
  store i8 0, i8* %90, align 1
  %91 = getelementptr inbounds [500 x i8], [500 x i8]* %6, i64 0, i64 0
  %92 = getelementptr inbounds [500 x i8], [500 x i8]* %7, i64 0, i64 0
  %93 = call i32 @strcmp(i8* %91, i8* %92) #3
  %94 = icmp eq i32 %93, 0
  br i1 %94, label %95, label %101

95:                                               ; preds = %85
  %96 = load i32, i32* %9, align 4
  %97 = sext i32 %96 to i64
  %98 = getelementptr inbounds [500 x i32], [500 x i32]* %2, i64 0, i64 %97
  %99 = load i32, i32* %98, align 4
  %100 = add nsw i32 %99, 1
  store i32 %100, i32* %98, align 4
  br label %101

101:                                              ; preds = %95, %85
  br label %102

102:                                              ; preds = %101
  %103 = load i32, i32* %11, align 4
  %104 = add nsw i32 %103, 1
  store i32 %104, i32* %11, align 4
  br label %61

105:                                              ; preds = %61
  br label %106

106:                                              ; preds = %105
  %107 = load i32, i32* %9, align 4
  %108 = add nsw i32 %107, 1
  store i32 %108, i32* %9, align 4
  br label %30

109:                                              ; preds = %30
  store i32 0, i32* %9, align 4
  br label %110

110:                                              ; preds = %129, %109
  %111 = load i32, i32* %9, align 4
  %112 = load i32, i32* %4, align 4
  %113 = load i32, i32* %8, align 4
  %114 = sub nsw i32 %112, %113
  %115 = icmp slt i32 %111, %114
  br i1 %115, label %116, label %132

116:                                              ; preds = %110
  %117 = load i32, i32* %3, align 4
  %118 = sext i32 %117 to i64
  %119 = getelementptr inbounds [500 x i32], [500 x i32]* %2, i64 0, i64 %118
  %120 = load i32, i32* %119, align 4
  %121 = load i32, i32* %9, align 4
  %122 = sext i32 %121 to i64
  %123 = getelementptr inbounds [500 x i32], [500 x i32]* %2, i64 0, i64 %122
  %124 = load i32, i32* %123, align 4
  %125 = icmp slt i32 %120, %124
  br i1 %125, label %126, label %128

126:                                              ; preds = %116
  %127 = load i32, i32* %9, align 4
  store i32 %127, i32* %3, align 4
  br label %128

128:                                              ; preds = %126, %116
  br label %129

129:                                              ; preds = %128
  %130 = load i32, i32* %9, align 4
  %131 = add nsw i32 %130, 1
  store i32 %131, i32* %9, align 4
  br label %110

132:                                              ; preds = %110
  %133 = load i32, i32* %3, align 4
  %134 = sext i32 %133 to i64
  %135 = getelementptr inbounds [500 x i32], [500 x i32]* %2, i64 0, i64 %134
  %136 = load i32, i32* %135, align 4
  %137 = icmp eq i32 %136, 1
  br i1 %137, label %138, label %140

138:                                              ; preds = %132
  %139 = call i32 (i8*, ...) @printf(i8* getelementptr inbounds ([3 x i8], [3 x i8]* @.str.1, i64 0, i64 0))
  br label %191

140:                                              ; preds = %132
  %141 = load i32, i32* %3, align 4
  %142 = sext i32 %141 to i64
  %143 = getelementptr inbounds [500 x i32], [500 x i32]* %2, i64 0, i64 %142
  %144 = load i32, i32* %143, align 4
  %145 = call i32 (i8*, ...) @printf(i8* getelementptr inbounds ([4 x i8], [4 x i8]* @.str.2, i64 0, i64 0), i32 %144)
  store i32 0, i32* %9, align 4
  br label %146

146:                                              ; preds = %187, %140
  %147 = load i32, i32* %9, align 4
  %148 = load i32, i32* %4, align 4
  %149 = load i32, i32* %8, align 4
  %150 = sub nsw i32 %148, %149
  %151 = icmp sle i32 %147, %150
  br i1 %151, label %152, label %190

152:                                              ; preds = %146
  store i32 0, i32* %10, align 4
  br label %153

153:                                              ; preds = %167, %152
  %154 = load i32, i32* %10, align 4
  %155 = load i32, i32* %8, align 4
  %156 = icmp slt i32 %154, %155
  br i1 %156, label %157, label %170

157:                                              ; preds = %153
  %158 = load i32, i32* %9, align 4
  %159 = load i32, i32* %10, align 4
  %160 = add nsw i32 %158, %159
  %161 = sext i32 %160 to i64
  %162 = getelementptr inbounds [500 x i8], [500 x i8]* %5, i64 0, i64 %161
  %163 = load i8, i8* %162, align 1
  %164 = load i32, i32* %10, align 4
  %165 = sext i32 %164 to i64
  %166 = getelementptr inbounds [500 x i8], [500 x i8]* %6, i64 0, i64 %165
  store i8 %163, i8* %166, align 1
  br label %167

167:                                              ; preds = %157
  %168 = load i32, i32* %10, align 4
  %169 = add nsw i32 %168, 1
  store i32 %169, i32* %10, align 4
  br label %153

170:                                              ; preds = %153
  %171 = load i32, i32* %8, align 4
  %172 = sext i32 %171 to i64
  %173 = getelementptr inbounds [500 x i8], [500 x i8]* %6, i64 0, i64 %172
  store i8 0, i8* %173, align 1
  %174 = load i32, i32* %9, align 4
  %175 = sext i32 %174 to i64
  %176 = getelementptr inbounds [500 x i32], [500 x i32]* %2, i64 0, i64 %175
  %177 = load i32, i32* %176, align 4
  %178 = load i32, i32* %3, align 4
  %179 = sext i32 %178 to i64
  %180 = getelementptr inbounds [500 x i32], [500 x i32]* %2, i64 0, i64 %179
  %181 = load i32, i32* %180, align 4
  %182 = icmp eq i32 %177, %181
  br i1 %182, label %183, label %186

183:                                              ; preds = %170
  %184 = getelementptr inbounds [500 x i8], [500 x i8]* %6, i64 0, i64 0
  %185 = call i32 (i8*, ...) @printf(i8* getelementptr inbounds ([4 x i8], [4 x i8]* @.str.3, i64 0, i64 0), i8* %184)
  br label %186

186:                                              ; preds = %183, %170
  br label %187

187:                                              ; preds = %186
  %188 = load i32, i32* %9, align 4
  %189 = add nsw i32 %188, 1
  store i32 %189, i32* %9, align 4
  br label %146

190:                                              ; preds = %146
  br label %191

191:                                              ; preds = %190, %138
  %192 = load i32, i32* %1, align 4
  ret i32 %192
}

declare dso_local i32 @__isoc99_scanf(i8*, ...) #1

; Function Attrs: nounwind readonly
declare dso_local i64 @strlen(i8*) #2

; Function Attrs: nounwind readonly
declare dso_local i32 @strcmp(i8*, i8*) #2

declare dso_local i32 @printf(i8*, ...) #1


!llvm.module.flags = !{!0}
!llvm.ident = !{!1}

!0 = !{i32 1, !"wchar_size", i32 4}
!1 = !{!"clang version 10.0.0-4ubuntu1 "}
